(dp0
S'user_id'
p1
(dp2
S'rname'
p3
S'"user_id"'
p4
sS'sortable'
p5
I2
sS'raw_rname'
p6
S'user_id'
p7
sS'notnull'
p8
I00
sS'length'
p9
I512
sS'sql'
p10
S'INTEGER'
p11
sS'unique'
p12
I00
sS'type'
p13
S'integer'
p14
ssS'class_id'
p15
(dp16
S'rname'
p17
S'"class_id"'
p18
sS'sortable'
p19
I3
sS'raw_rname'
p20
S'class_id'
p21
sS'notnull'
p22
I00
sS'length'
p23
I512
sS'sql'
p24
S'CHAR(512)'
p25
sS'unique'
p26
I00
sS'type'
p27
S'string'
p28
ssS'student_id'
p29
(dp30
S'rname'
p31
S'"student_id"'
p32
sS'sortable'
p33
I2
sS'raw_rname'
p34
S'student_id'
p35
sS'notnull'
p36
I00
sS'length'
p37
I512
sS'sql'
p38
S'INTEGER'
p39
sS'unique'
p40
I00
sS'type'
p41
S'integer'
p42
ssS'is_grade_public'
p43
(dp44
g3
S'"is_grade_public"'
p45
sg5
I7
sg6
S'is_grade_public'
p46
sg8
I00
sg9
I512
sg10
S'CHAR(1)'
p47
sg12
I00
sg13
S'boolean'
p48
ssS'is_course_public'
p49
(dp50
g3
S'"is_course_public"'
p51
sg5
I6
sg6
S'is_course_public'
p52
sg8
I00
sg9
I512
sg10
S'CHAR(1)'
p53
sg12
I00
sg13
g48
ssS'grade'
p54
(dp55
g3
S'"grade"'
p56
sg5
I5
sg6
S'grade'
p57
sg8
I00
sg9
I512
sg10
S'CHAR(512)'
p58
sg12
I00
sg13
S'string'
p59
ssS'course_name'
p60
(dp61
g3
S'"course_name"'
p62
sg5
I3
sg6
S'course_name'
p63
sg8
I00
sg9
I512
sg10
S'CHAR(512)'
p64
sg12
I00
sg13
g59
ssS'course_id'
p65
(dp66
g31
S'"course_id"'
p67
sg33
I3
sg34
S'course_id'
p68
sg36
I00
sg37
I512
sg38
S'CHAR(512)'
p69
sg40
I00
sg41
S'string'
p70
ssS'is_class_public'
p71
(dp72
g17
S'"is_class_public"'
p73
sg19
I6
sg20
S'is_class_public'
p74
sg22
I00
sg23
I512
sg24
S'CHAR(1)'
p75
sg26
I00
sg27
S'boolean'
p76
ssS'quarter'
p77
(dp78
g3
S'"quarter"'
p79
sg5
I4
sg6
S'quarter'
p80
sg8
I00
sg9
I512
sg10
S'CHAR(512)'
p81
sg12
I00
sg13
g59
ssS'id'
p82
(dp83
g3
S'"id"'
p84
sg5
I1
sg6
S'id'
p85
sg8
I00
sg9
I512
sg10
S'INTEGER PRIMARY KEY AUTOINCREMENT'
p86
sg12
I00
sg13
g85
ss.