(dp0
S'grade'
p1
(dp2
S'rname'
p3
S'"grade"'
p4
sS'sortable'
p5
I5
sS'raw_rname'
p6
S'grade'
p7
sS'notnull'
p8
I00
sS'length'
p9
I512
sS'sql'
p10
S'CHAR(512)'
p11
sS'unique'
p12
I00
sS'type'
p13
S'string'
p14
ssS'quarter'
p15
(dp16
g3
S'"quarter"'
p17
sg5
I4
sg6
S'quarter'
p18
sg8
I00
sg9
I512
sg10
S'CHAR(512)'
p19
sg12
I00
sg13
g14
ssS'is_class_public'
p20
(dp21
g3
S'"is_class_public"'
p22
sg5
I6
sg6
S'is_class_public'
p23
sg8
I00
sg9
I512
sg10
S'CHAR(1)'
p24
sg12
I00
sg13
S'boolean'
p25
ssS'class_id'
p26
(dp27
g3
S'"class_id"'
p28
sg5
I3
sg6
S'class_id'
p29
sg8
I00
sg9
I512
sg10
S'CHAR(512)'
p30
sg12
I00
sg13
g14
ssS'student_id'
p31
(dp32
g3
S'"student_id"'
p33
sg5
I2
sg6
S'student_id'
p34
sg8
I00
sg9
I512
sg10
S'INTEGER'
p35
sg12
I00
sg13
S'integer'
p36
ssS'is_grade_public'
p37
(dp38
g3
S'"is_grade_public"'
p39
sg5
I7
sg6
S'is_grade_public'
p40
sg8
I00
sg9
I512
sg10
S'CHAR(1)'
p41
sg12
I00
sg13
g25
ssS'id'
p42
(dp43
g3
S'"id"'
p44
sg5
I1
sg6
S'id'
p45
sg8
I00
sg9
I512
sg10
S'INTEGER PRIMARY KEY AUTOINCREMENT'
p46
sg12
I00
sg13
g45
ss.