(dp0
S'is_class_public'
p1
(dp2
S'rname'
p3
S'"is_class_public"'
p4
sS'sortable'
p5
I6
sS'raw_rname'
p6
g1
sS'notnull'
p7
I00
sS'length'
p8
I512
sS'sql'
p9
S'CHAR(512)'
p10
sS'unique'
p11
I00
sS'type'
p12
S'string'
p13
ssS'class_id'
p14
(dp15
g3
S'"class_id"'
p16
sg5
I3
sg6
g14
sg7
I00
sg8
I512
sg9
S'CHAR(512)'
p17
sg11
I00
sg12
g13
ssS'student_id'
p18
(dp19
g3
S'"student_id"'
p20
sg5
I2
sg6
g18
sg7
I00
sg8
I512
sg9
S'CHAR(512)'
p21
sg11
I00
sg12
g13
ssS'is_grade_public'
p22
(dp23
g3
S'"is_grade_public"'
p24
sg5
I7
sg6
g22
sg7
I00
sg8
I512
sg9
S'CHAR(512)'
p25
sg11
I00
sg12
g13
ssS'grade'
p26
(dp27
g3
S'"grade"'
p28
sg5
I5
sg6
g26
sg7
I00
sg8
I512
sg9
S'CHAR(512)'
p29
sg11
I00
sg12
g13
ssS'quarter'
p30
(dp31
g3
S'"quarter"'
p32
sg5
I4
sg6
g30
sg7
I00
sg8
I512
sg9
S'CHAR(512)'
p33
sg11
I00
sg12
g13
ssS'id'
p34
(dp35
g3
S'"id"'
p36
sg5
I1
sg6
g34
sg7
I00
sg8
I512
sg9
S'INTEGER PRIMARY KEY AUTOINCREMENT'
p37
sg11
I00
sg12
g34
ss.